target datalayout = "e-m:e-p270:32:32-p271:32:32-p272:64:64-i64:64-i128:128-f80:128-n8:16:32:64-S128"
target triple = "x86_64-pc-linux-gnu"

; Function Attrs: nounwind uwtable
define i32 @CMS_verify_receipt(ptr noundef %0, ptr noundef %1, ptr noundef %2, ptr noundef %3, i32 noundef %4) #0 {
  %6 = alloca i32, align 4
  %7 = alloca ptr, align 8
  %8 = alloca ptr, align 8
  %9 = alloca ptr, align 8
  %10 = alloca ptr, align 8
  %11 = alloca i32, align 4
  %12 = alloca i32, align 4
  %13 = alloca i32, align 4
  store ptr %0, ptr %7, align 8, !tbaa !3
  store ptr %1, ptr %8, align 8, !tbaa !3
  store ptr %2, ptr %9, align 8, !tbaa !28
  store ptr %3, ptr %10, align 8, !tbaa !30
  store i32 %4, ptr %11, align 4, !tbaa !10
  call void @llvm.lifetime.start.p0(i64 4, ptr %12) #4
  %14 = load i32, ptr %11, align 4, !tbaa !10
  %15 = and i32 %14, -66
  store i32 %15, ptr %11, align 4, !tbaa !10
  %16 = load ptr, ptr %7, align 8, !tbaa !3
  %17 = load ptr, ptr %9, align 8, !tbaa !28
  %18 = load ptr, ptr %10, align 8, !tbaa !30
  %19 = load i32, ptr %11, align 4, !tbaa !10
  %20 = call i32 @CMS_verify(ptr noundef %16, ptr noundef %17, ptr noundef %18, ptr noundef null, ptr noundef null, i32 noundef %19)
  store i32 %20, ptr %12, align 4, !tbaa !10
  %21 = load i32, ptr %12, align 4, !tbaa !10
  %22 = icmp sle i32 %21, 0
  br i1 %22, label %23, label %25

23:                                               ; preds = %5
  %24 = load i32, ptr %12, align 4, !tbaa !10
  store i32 %24, ptr %6, align 4
  store i32 1, ptr %13, align 4
  br label %29

25:                                               ; preds = %5
  %26 = load ptr, ptr %7, align 8, !tbaa !3
  %27 = load ptr, ptr %8, align 8, !tbaa !3
  %28 = call i32 @ossl_cms_Receipt_verify(ptr noundef %26, ptr noundef %27)
  store i32 %28, ptr %6, align 4
  store i32 1, ptr %13, align 4
  br label %29

29:                                               ; preds = %25, %23
  call void @llvm.lifetime.end.p0(i64 4, ptr %12) #4
  %30 = load i32, ptr %6, align 4
  ret i32 %30
}