; Function Attrs: nounwind uwtable
define i32 @CMS_verify_receipt(ptr noundef %0, ptr noundef %1, ptr noundef %2, ptr noundef %3, i32 noundef %4) local_unnamed_addr #0 {
  %6 = and i32 %4, -66
  %7 = tail call i32 @CMS_verify(ptr noundef %0, ptr noundef %2, ptr noundef %3, ptr noundef null, ptr noundef null, i32 noundef %6)
  %.not.not = icmp eq i32 %7, 0
  br i1 %.not.not, label %10, label %8

8:                                                ; preds = %5
  %9 = tail call i32 @ossl_cms_Receipt_verify(ptr noundef %0, ptr noundef %1) #4
  br label %10

10:                                               ; preds = %5, %8
  %.0 = phi i32 [ %9, %8 ], [ 0, %5 ]
  ret i32 %.0
}